target datalayout = "e-m:e-p270:32:32-p271:32:32-p272:64:64-i64:64-i128:128-f80:128-n8:16:32:64-S128"
target triple = "x86_64-pc-linux-gnu"

@.str.96 = private unnamed_addr constant [5 x i8] c"NULL\00", align 1
@.str.101 = private unnamed_addr constant [7 x i8] c"(null)\00", align 1
@.str.102 = private unnamed_addr constant [6 x i8] c"#true\00", align 1
@.str.103 = private unnamed_addr constant [7 x i8] c"#false\00", align 1
@.str.104 = private unnamed_addr constant [10 x i8] c"(double) \00", align 1

; Function Attrs: nounwind uwtable
define dso_local ptr @ldbRedisProtocolToHuman_Double(ptr noundef %0, ptr noundef %1) #0 {
  %3 = alloca ptr, align 8
  %4 = alloca ptr, align 8
  %5 = alloca ptr, align 8
  store ptr %0, ptr %3, align 8, !tbaa !100
  store ptr %1, ptr %4, align 8, !tbaa !16
  call void @llvm.lifetime.start.p0(i64 8, ptr %5) #14
  %6 = load ptr, ptr %4, align 8, !tbaa !16
  %7 = getelementptr inbounds i8, ptr %6, i64 1
  %8 = call ptr @strchr(ptr noundef %7, i32 noundef 13) #13
  store ptr %8, ptr %5, align 8, !tbaa !16
  %9 = load ptr, ptr %3, align 8, !tbaa !100
  %10 = load ptr, ptr %9, align 8, !tbaa !16
  %11 = call ptr @sdscatlen(ptr noundef %10, ptr noundef @.str.104, i64 noundef 9)
  %12 = load ptr, ptr %3, align 8, !tbaa !100
  store ptr %11, ptr %12, align 8, !tbaa !16
  %13 = load ptr, ptr %3, align 8, !tbaa !100
  %14 = load ptr, ptr %13, align 8, !tbaa !16
  %15 = load ptr, ptr %4, align 8, !tbaa !16
  %16 = getelementptr inbounds i8, ptr %15, i64 1
  %17 = load ptr, ptr %5, align 8, !tbaa !16
  %18 = load ptr, ptr %4, align 8, !tbaa !16
  %19 = ptrtoint ptr %17 to i64
  %20 = ptrtoint ptr %18 to i64
  %21 = sub i64 %19, %20
  %22 = sub nsw i64 %21, 1
  %23 = call ptr @sdscatlen(ptr noundef %14, ptr noundef %16, i64 noundef %22)
  %24 = load ptr, ptr %3, align 8, !tbaa !100
  store ptr %23, ptr %24, align 8, !tbaa !16
  %25 = load ptr, ptr %5, align 8, !tbaa !16
  %26 = getelementptr inbounds i8, ptr %25, i64 2
  call void @llvm.lifetime.end.p0(i64 8, ptr %5) #14
  ret ptr %26
}

; Function Attrs: nounwind uwtable
define dso_local ptr @ldbRedisProtocolToHuman_Bool(ptr noundef %0, ptr noundef %1) #0 {
  %3 = alloca ptr, align 8
  %4 = alloca ptr, align 8
  %5 = alloca ptr, align 8
  store ptr %0, ptr %3, align 8, !tbaa !100
  store ptr %1, ptr %4, align 8, !tbaa !16
  call void @llvm.lifetime.start.p0(i64 8, ptr %5) #14
  %6 = load ptr, ptr %4, align 8, !tbaa !16
  %7 = getelementptr inbounds i8, ptr %6, i64 1
  %8 = call ptr @strchr(ptr noundef %7, i32 noundef 13) #13
  store ptr %8, ptr %5, align 8, !tbaa !16
  %9 = load ptr, ptr %4, align 8, !tbaa !16
  %10 = getelementptr inbounds i8, ptr %9, i64 1
  %11 = load i8, ptr %10, align 1, !tbaa !21
  %12 = sext i8 %11 to i32
  %13 = icmp eq i32 %12, 116
  br i1 %13, label %14, label %19

14:                                               ; preds = %2
  %15 = load ptr, ptr %3, align 8, !tbaa !100
  %16 = load ptr, ptr %15, align 8, !tbaa !16
  %17 = call ptr @sdscatlen(ptr noundef %16, ptr noundef @.str.102, i64 noundef 5)
  %18 = load ptr, ptr %3, align 8, !tbaa !100
  store ptr %17, ptr %18, align 8, !tbaa !16
  br label %24

19:                                               ; preds = %2
  %20 = load ptr, ptr %3, align 8, !tbaa !100
  %21 = load ptr, ptr %20, align 8, !tbaa !16
  %22 = call ptr @sdscatlen(ptr noundef %21, ptr noundef @.str.103, i64 noundef 6)
  %23 = load ptr, ptr %3, align 8, !tbaa !100
  store ptr %22, ptr %23, align 8, !tbaa !16
  br label %24

24:                                               ; preds = %19, %14
  %25 = load ptr, ptr %5, align 8, !tbaa !16
  %26 = getelementptr inbounds i8, ptr %25, i64 2
  call void @llvm.lifetime.end.p0(i64 8, ptr %5) #14
  ret ptr %26
}

; Function Attrs: nounwind uwtable
define dso_local ptr @ldbRedisProtocolToHuman_Null(ptr noundef %0, ptr noundef %1) #0 {
  %3 = alloca ptr, align 8
  %4 = alloca ptr, align 8
  %5 = alloca ptr, align 8
  store ptr %0, ptr %3, align 8, !tbaa !100
  store ptr %1, ptr %4, align 8, !tbaa !16
  call void @llvm.lifetime.start.p0(i64 8, ptr %5) #14
  %6 = load ptr, ptr %4, align 8, !tbaa !16
  %7 = getelementptr inbounds i8, ptr %6, i64 1
  %8 = call ptr @strchr(ptr noundef %7, i32 noundef 13) #13
  store ptr %8, ptr %5, align 8, !tbaa !16
  %9 = load ptr, ptr %3, align 8, !tbaa !100
  %10 = load ptr, ptr %9, align 8, !tbaa !16
  %11 = call ptr @sdscatlen(ptr noundef %10, ptr noundef @.str.101, i64 noundef 6)
  %12 = load ptr, ptr %3, align 8, !tbaa !100
  store ptr %11, ptr %12, align 8, !tbaa !16
  %13 = load ptr, ptr %5, align 8, !tbaa !16
  %14 = getelementptr inbounds i8, ptr %13, i64 2
  call void @llvm.lifetime.end.p0(i64 8, ptr %5) #14
  ret ptr %14
}

; Function Attrs: nounwind uwtable
define dso_local ptr @ldbRedisProtocolToHuman_Status(ptr noundef %0, ptr noundef %1) #0 {
  %3 = alloca ptr, align 8
  %4 = alloca ptr, align 8
  %5 = alloca ptr, align 8
  store ptr %0, ptr %3, align 8, !tbaa !100
  store ptr %1, ptr %4, align 8, !tbaa !16
  call void @llvm.lifetime.start.p0(i64 8, ptr %5) #14
  %6 = load ptr, ptr %4, align 8, !tbaa !16
  %7 = getelementptr inbounds i8, ptr %6, i64 1
  %8 = call ptr @strchr(ptr noundef %7, i32 noundef 13) #13
  store ptr %8, ptr %5, align 8, !tbaa !16
  %9 = load ptr, ptr %3, align 8, !tbaa !100
  %10 = load ptr, ptr %9, align 8, !tbaa !16
  %11 = load ptr, ptr %4, align 8, !tbaa !16
  %12 = load ptr, ptr %5, align 8, !tbaa !16
  %13 = load ptr, ptr %4, align 8, !tbaa !16
  %14 = ptrtoint ptr %12 to i64
  %15 = ptrtoint ptr %13 to i64
  %16 = sub i64 %14, %15
  %17 = call ptr @sdscatrepr(ptr noundef %10, ptr noundef %11, i64 noundef %16)
  %18 = load ptr, ptr %3, align 8, !tbaa !100
  store ptr %17, ptr %18, align 8, !tbaa !16
  %19 = load ptr, ptr %5, align 8, !tbaa !16
  %20 = getelementptr inbounds i8, ptr %19, i64 2
  call void @llvm.lifetime.end.p0(i64 8, ptr %5) #14
  ret ptr %20
}

; Function Attrs: nounwind uwtable
define dso_local ptr @ldbRedisProtocolToHuman_Bulk(ptr noundef %0, ptr noundef %1) #0 {
  %3 = alloca ptr, align 8
  %4 = alloca ptr, align 8
  %5 = alloca ptr, align 8
  %6 = alloca ptr, align 8
  %7 = alloca i64, align 8
  %8 = alloca i32, align 4
  store ptr %0, ptr %4, align 8, !tbaa !100
  store ptr %1, ptr %5, align 8, !tbaa !16
  call void @llvm.lifetime.start.p0(i64 8, ptr %6) #14
  %9 = load ptr, ptr %5, align 8, !tbaa !16
  %10 = getelementptr inbounds i8, ptr %9, i64 1
  %11 = call ptr @strchr(ptr noundef %10, i32 noundef 13) #13
  store ptr %11, ptr %6, align 8, !tbaa !16
  call void @llvm.lifetime.start.p0(i64 8, ptr %7) #14
  %12 = load ptr, ptr %5, align 8, !tbaa !16
  %13 = getelementptr inbounds i8, ptr %12, i64 1
  %14 = load ptr, ptr %6, align 8, !tbaa !16
  %15 = load ptr, ptr %5, align 8, !tbaa !16
  %16 = ptrtoint ptr %14 to i64
  %17 = ptrtoint ptr %15 to i64
  %18 = sub i64 %16, %17
  %19 = sub nsw i64 %18, 1
  %20 = call i32 @string2ll(ptr noundef %13, i64 noundef %19, ptr noundef %7)
  %21 = load i64, ptr %7, align 8, !tbaa !143
  %22 = icmp eq i64 %21, -1
  br i1 %22, label %23, label %30

23:                                               ; preds = %2
  %24 = load ptr, ptr %4, align 8, !tbaa !100
  %25 = load ptr, ptr %24, align 8, !tbaa !16
  %26 = call ptr @sdscatlen(ptr noundef %25, ptr noundef @.str.96, i64 noundef 4)
  %27 = load ptr, ptr %4, align 8, !tbaa !100
  store ptr %26, ptr %27, align 8, !tbaa !16
  %28 = load ptr, ptr %6, align 8, !tbaa !16
  %29 = getelementptr inbounds i8, ptr %28, i64 2
  store ptr %29, ptr %3, align 8
  store i32 1, ptr %8, align 4
  br label %43

30:                                               ; preds = %2
  %31 = load ptr, ptr %4, align 8, !tbaa !100
  %32 = load ptr, ptr %31, align 8, !tbaa !16
  %33 = load ptr, ptr %6, align 8, !tbaa !16
  %34 = getelementptr inbounds i8, ptr %33, i64 2
  %35 = load i64, ptr %7, align 8, !tbaa !143
  %36 = call ptr @sdscatrepr(ptr noundef %32, ptr noundef %34, i64 noundef %35)
  %37 = load ptr, ptr %4, align 8, !tbaa !100
  store ptr %36, ptr %37, align 8, !tbaa !16
  %38 = load ptr, ptr %6, align 8, !tbaa !16
  %39 = getelementptr inbounds i8, ptr %38, i64 2
  %40 = load i64, ptr %7, align 8, !tbaa !143
  %41 = getelementptr inbounds i8, ptr %39, i64 %40
  %42 = getelementptr inbounds i8, ptr %41, i64 2
  store ptr %42, ptr %3, align 8
  store i32 1, ptr %8, align 4
  br label %43

43:                                               ; preds = %30, %23
  call void @llvm.lifetime.end.p0(i64 8, ptr %7) #14
  call void @llvm.lifetime.end.p0(i64 8, ptr %6) #14
  %44 = load ptr, ptr %3, align 8
  ret ptr %44
}

; Function Attrs: nounwind uwtable
define dso_local ptr @ldbRedisProtocolToHuman_Int(ptr noundef %0, ptr noundef %1) #0 {
  %3 = alloca ptr, align 8
  %4 = alloca ptr, align 8
  %5 = alloca ptr, align 8
  store ptr %0, ptr %3, align 8, !tbaa !100
  store ptr %1, ptr %4, align 8, !tbaa !16
  call void @llvm.lifetime.start.p0(i64 8, ptr %5) #14
  %6 = load ptr, ptr %4, align 8, !tbaa !16
  %7 = getelementptr inbounds i8, ptr %6, i64 1
  %8 = call ptr @strchr(ptr noundef %7, i32 noundef 13) #13
  store ptr %8, ptr %5, align 8, !tbaa !16
  %9 = load ptr, ptr %3, align 8, !tbaa !100
  %10 = load ptr, ptr %9, align 8, !tbaa !16
  %11 = load ptr, ptr %4, align 8, !tbaa !16
  %12 = getelementptr inbounds i8, ptr %11, i64 1
  %13 = load ptr, ptr %5, align 8, !tbaa !16
  %14 = load ptr, ptr %4, align 8, !tbaa !16
  %15 = ptrtoint ptr %13 to i64
  %16 = ptrtoint ptr %14 to i64
  %17 = sub i64 %15, %16
  %18 = sub nsw i64 %17, 1
  %19 = call ptr @sdscatlen(ptr noundef %10, ptr noundef %12, i64 noundef %18)
  %20 = load ptr, ptr %3, align 8, !tbaa !100
  store ptr %19, ptr %20, align 8, !tbaa !16
  %21 = load ptr, ptr %5, align 8, !tbaa !16
  %22 = getelementptr inbounds i8, ptr %21, i64 2
  call void @llvm.lifetime.end.p0(i64 8, ptr %5) #14
  ret ptr %22
}

; Function Attrs: nounwind uwtable
define dso_local ptr @ldbRedisProtocolToHuman(ptr noundef %0, ptr noundef %1) #0 {
  %3 = alloca ptr, align 8
  %4 = alloca ptr, align 8
  %5 = alloca ptr, align 8
  store ptr %0, ptr %3, align 8, !tbaa !100
  store ptr %1, ptr %4, align 8, !tbaa !16
  call void @llvm.lifetime.start.p0(i64 8, ptr %5) #14
  %6 = load ptr, ptr %4, align 8, !tbaa !16
  store ptr %6, ptr %5, align 8, !tbaa !16
  %7 = load ptr, ptr %5, align 8, !tbaa !16
  %8 = load i8, ptr %7, align 1, !tbaa !21
  %9 = sext i8 %8 to i32
  switch i32 %9, label %50 [
    i32 58, label %10
    i32 36, label %14
    i32 43, label %18
    i32 45, label %22
    i32 42, label %26
    i32 126, label %30
    i32 37, label %34
    i32 95, label %38
    i32 35, label %42
    i32 44, label %46
  ]

10:                                               ; preds = %2
  %11 = load ptr, ptr %3, align 8, !tbaa !100
  %12 = load ptr, ptr %4, align 8, !tbaa !16
  %13 = call ptr @ldbRedisProtocolToHuman_Int(ptr noundef %11, ptr noundef %12)
  store ptr %13, ptr %5, align 8, !tbaa !16
  br label %50

14:                                               ; preds = %2
  %15 = load ptr, ptr %3, align 8, !tbaa !100
  %16 = load ptr, ptr %4, align 8, !tbaa !16
  %17 = call ptr @ldbRedisProtocolToHuman_Bulk(ptr noundef %15, ptr noundef %16)
  store ptr %17, ptr %5, align 8, !tbaa !16
  br label %50

18:                                               ; preds = %2
  %19 = load ptr, ptr %3, align 8, !tbaa !100
  %20 = load ptr, ptr %4, align 8, !tbaa !16
  %21 = call ptr @ldbRedisProtocolToHuman_Status(ptr noundef %19, ptr noundef %20)
  store ptr %21, ptr %5, align 8, !tbaa !16
  br label %50

22:                                               ; preds = %2
  %23 = load ptr, ptr %3, align 8, !tbaa !100
  %24 = load ptr, ptr %4, align 8, !tbaa !16
  %25 = call ptr @ldbRedisProtocolToHuman_Status(ptr noundef %23, ptr noundef %24)
  store ptr %25, ptr %5, align 8, !tbaa !16
  br label %50

26:                                               ; preds = %2
  %27 = load ptr, ptr %3, align 8, !tbaa !100
  %28 = load ptr, ptr %4, align 8, !tbaa !16
  %29 = call ptr @ldbRedisProtocolToHuman_MultiBulk(ptr noundef %27, ptr noundef %28)
  store ptr %29, ptr %5, align 8, !tbaa !16
  br label %50

30:                                               ; preds = %2
  %31 = load ptr, ptr %3, align 8, !tbaa !100
  %32 = load ptr, ptr %4, align 8, !tbaa !16
  %33 = call ptr @ldbRedisProtocolToHuman_Set(ptr noundef %31, ptr noundef %32)
  store ptr %33, ptr %5, align 8, !tbaa !16
  br label %50

34:                                               ; preds = %2
  %35 = load ptr, ptr %3, align 8, !tbaa !100
  %36 = load ptr, ptr %4, align 8, !tbaa !16
  %37 = call ptr @ldbRedisProtocolToHuman_Map(ptr noundef %35, ptr noundef %36)
  store ptr %37, ptr %5, align 8, !tbaa !16
  br label %50

38:                                               ; preds = %2
  %39 = load ptr, ptr %3, align 8, !tbaa !100
  %40 = load ptr, ptr %4, align 8, !tbaa !16
  %41 = call ptr @ldbRedisProtocolToHuman_Null(ptr noundef %39, ptr noundef %40)
  store ptr %41, ptr %5, align 8, !tbaa !16
  br label %50

42:                                               ; preds = %2
  %43 = load ptr, ptr %3, align 8, !tbaa !100
  %44 = load ptr, ptr %4, align 8, !tbaa !16
  %45 = call ptr @ldbRedisProtocolToHuman_Bool(ptr noundef %43, ptr noundef %44)
  store ptr %45, ptr %5, align 8, !tbaa !16
  br label %50

46:                                               ; preds = %2
  %47 = load ptr, ptr %3, align 8, !tbaa !100
  %48 = load ptr, ptr %4, align 8, !tbaa !16
  %49 = call ptr @ldbRedisProtocolToHuman_Double(ptr noundef %47, ptr noundef %48)
  store ptr %49, ptr %5, align 8, !tbaa !16
  br label %50

50:                                               ; preds = %2, %46, %42, %38, %34, %30, %26, %22, %18, %14, %10
  %51 = load ptr, ptr %5, align 8, !tbaa !16
  call void @llvm.lifetime.end.p0(i64 8, ptr %5) #14
  ret ptr %51
}