; Function Attrs: nounwind uwtable
define dso_local ptr @ldbRedisProtocolToHuman(ptr noundef captures(none) %0, ptr noundef %1) local_unnamed_addr #0 {
  %3 = alloca i64, align 8
  %4 = load i8, ptr %1, align 1, !tbaa !13
  switch i8 %4, label %85 [
    i8 58, label %5
    i8 36, label %15
    i8 43, label %33
    i8 45, label %42
    i8 42, label %51
    i8 126, label %53
    i8 37, label %55
    i8 95, label %57
    i8 35, label %63
    i8 44, label %74
  ]

5:                                                ; preds = %2
  %6 = getelementptr inbounds nuw i8, ptr %1, i64 1
  %7 = tail call ptr @strchr(ptr noundef nonnull dereferenceable(1) %6, i32 noundef 13) #18
  %8 = load ptr, ptr %0, align 8, !tbaa !92
  %9 = ptrtoint ptr %7 to i64
  %10 = ptrtoint ptr %1 to i64
  %11 = xor i64 %10, -1
  %12 = add i64 %9, %11
  %13 = tail call ptr @sdscatlen(ptr noundef %8, ptr noundef nonnull %6, i64 noundef %12) #19
  store ptr %13, ptr %0, align 8, !tbaa !92
  %14 = getelementptr inbounds nuw i8, ptr %7, i64 2
  br label %85

15:                                               ; preds = %2
  %16 = getelementptr inbounds nuw i8, ptr %1, i64 1
  %17 = tail call ptr @strchr(ptr noundef nonnull dereferenceable(1) %16, i32 noundef 13) #18
  call void @llvm.lifetime.start.p0(i64 8, ptr nonnull %3) #19
  %18 = ptrtoint ptr %17 to i64
  %19 = ptrtoint ptr %1 to i64
  %20 = xor i64 %19, -1
  %21 = add i64 %18, %20
  %22 = call i32 @string2ll(ptr noundef nonnull %16, i64 noundef %21, ptr noundef nonnull %3) #19
  %23 = load i64, ptr %3, align 8, !tbaa !131
  %24 = icmp eq i64 %23, -1
  %25 = load ptr, ptr %0, align 8, !tbaa !92
  br i1 %24, label %26, label %28

26:                                               ; preds = %15
  %27 = call ptr @sdscatlen(ptr noundef %25, ptr noundef nonnull @.str.96, i64 noundef 4) #19
  br label %ldbRedisProtocolToHuman_Bulk.exit

28:                                               ; preds = %15
  %29 = getelementptr inbounds nuw i8, ptr %17, i64 2
  %30 = call ptr @sdscatrepr(ptr noundef %25, ptr noundef nonnull %29, i64 noundef %23) #19
  %31 = load i64, ptr %3, align 8, !tbaa !131
  %32 = getelementptr inbounds i8, ptr %29, i64 %31
  br label %ldbRedisProtocolToHuman_Bulk.exit

ldbRedisProtocolToHuman_Bulk.exit:                ; preds = %26, %28
  %.sink.i = phi ptr [ %27, %26 ], [ %30, %28 ]
  %.pn.i = phi ptr [ %17, %26 ], [ %32, %28 ]
  store ptr %.sink.i, ptr %0, align 8, !tbaa !92
  %.0.i = getelementptr inbounds nuw i8, ptr %.pn.i, i64 2
  call void @llvm.lifetime.end.p0(i64 8, ptr nonnull %3) #19
  br label %85

33:                                               ; preds = %2
  %34 = getelementptr inbounds nuw i8, ptr %1, i64 1
  %35 = tail call ptr @strchr(ptr noundef nonnull dereferenceable(1) %34, i32 noundef 13) #18
  %36 = load ptr, ptr %0, align 8, !tbaa !92
  %37 = ptrtoint ptr %35 to i64
  %38 = ptrtoint ptr %1 to i64
  %39 = sub i64 %37, %38
  %40 = tail call ptr @sdscatrepr(ptr noundef %36, ptr noundef nonnull %1, i64 noundef %39) #19
  store ptr %40, ptr %0, align 8, !tbaa !92
  %41 = getelementptr inbounds nuw i8, ptr %35, i64 2
  br label %85

42:                                               ; preds = %2
  %43 = getelementptr inbounds nuw i8, ptr %1, i64 1
  %44 = tail call ptr @strchr(ptr noundef nonnull dereferenceable(1) %43, i32 noundef 13) #18
  %45 = load ptr, ptr %0, align 8, !tbaa !92
  %46 = ptrtoint ptr %44 to i64
  %47 = ptrtoint ptr %1 to i64
  %48 = sub i64 %46, %47
  %49 = tail call ptr @sdscatrepr(ptr noundef %45, ptr noundef nonnull %1, i64 noundef %48) #19
  store ptr %49, ptr %0, align 8, !tbaa !92
  %50 = getelementptr inbounds nuw i8, ptr %44, i64 2
  br label %85

51:                                               ; preds = %2
  %52 = tail call ptr @ldbRedisProtocolToHuman_MultiBulk(ptr noundef %0, ptr noundef nonnull %1)
  br label %85

53:                                               ; preds = %2
  %54 = tail call ptr @ldbRedisProtocolToHuman_Set(ptr noundef %0, ptr noundef nonnull %1)
  br label %85

55:                                               ; preds = %2
  %56 = tail call ptr @ldbRedisProtocolToHuman_Map(ptr noundef %0, ptr noundef nonnull %1)
  br label %85

57:                                               ; preds = %2
  %58 = getelementptr inbounds nuw i8, ptr %1, i64 1
  %59 = tail call ptr @strchr(ptr noundef nonnull readonly dereferenceable(1) %58, i32 noundef 13) #18
  %60 = load ptr, ptr %0, align 8, !tbaa !92
  %61 = tail call ptr @sdscatlen(ptr noundef %60, ptr noundef nonnull @.str.101, i64 noundef 6) #19
  store ptr %61, ptr %0, align 8, !tbaa !92
  %62 = getelementptr inbounds nuw i8, ptr %59, i64 2
  br label %85

63:                                               ; preds = %2
  %64 = getelementptr inbounds nuw i8, ptr %1, i64 1
  %65 = tail call ptr @strchr(ptr noundef nonnull readonly dereferenceable(1) %64, i32 noundef 13) #18
  %66 = load i8, ptr %64, align 1, !tbaa !13
  %67 = icmp eq i8 %66, 116
  %68 = load ptr, ptr %0, align 8, !tbaa !92
  br i1 %67, label %69, label %71

69:                                               ; preds = %63
  %70 = tail call ptr @sdscatlen(ptr noundef %68, ptr noundef nonnull @.str.102, i64 noundef 5) #19
  br label %ldbRedisProtocolToHuman_Bool.exit

71:                                               ; preds = %63
  %72 = tail call ptr @sdscatlen(ptr noundef %68, ptr noundef nonnull @.str.103, i64 noundef 6) #19
  br label %ldbRedisProtocolToHuman_Bool.exit

ldbRedisProtocolToHuman_Bool.exit:                ; preds = %69, %71
  %storemerge.i = phi ptr [ %72, %71 ], [ %70, %69 ]
  store ptr %storemerge.i, ptr %0, align 8, !tbaa !92
  %73 = getelementptr inbounds nuw i8, ptr %65, i64 2
  br label %85

74:                                               ; preds = %2
  %75 = getelementptr inbounds nuw i8, ptr %1, i64 1
  %76 = tail call ptr @strchr(ptr noundef nonnull dereferenceable(1) %75, i32 noundef 13) #18
  %77 = load ptr, ptr %0, align 8, !tbaa !92
  %78 = tail call ptr @sdscatlen(ptr noundef %77, ptr noundef nonnull @.str.104, i64 noundef 9) #19
  store ptr %78, ptr %0, align 8, !tbaa !92
  %79 = ptrtoint ptr %76 to i64
  %80 = ptrtoint ptr %1 to i64
  %81 = xor i64 %80, -1
  %82 = add i64 %79, %81
  %83 = tail call ptr @sdscatlen(ptr noundef %78, ptr noundef nonnull %75, i64 noundef %82) #19
  store ptr %83, ptr %0, align 8, !tbaa !92
  %84 = getelementptr inbounds nuw i8, ptr %76, i64 2
  br label %85

85:                                               ; preds = %74, %ldbRedisProtocolToHuman_Bool.exit, %57, %55, %53, %51, %42, %33, %ldbRedisProtocolToHuman_Bulk.exit, %5, %2
  %.0 = phi ptr [ %1, %2 ], [ %84, %74 ], [ %73, %ldbRedisProtocolToHuman_Bool.exit ], [ %62, %57 ], [ %56, %55 ], [ %54, %53 ], [ %52, %51 ], [ %50, %42 ], [ %41, %33 ], [ %.0.i, %ldbRedisProtocolToHuman_Bulk.exit ], [ %14, %5 ]
  ret ptr %.0
}